target datalayout = "e-m:e-p270:32:32-p271:32:32-p272:64:64-i64:64-i128:128-f80:128-n8:16:32:64-S128"
target triple = "x86_64-pc-linux-gnu"

%"class.smt::theory_user_propagator" = type <{ %"class.smt::theory.base", [3 x i8], %"class.user_propagator::callback", ptr, %"class.std::function", %"class.std::function.1", %"class.std::function.3", %"class.std::function", %"class.std::function.5", %"class.std::function.5", %"class.std::function.5", %"class.std::function.7", %"class.std::function.9", ptr, i32, [4 x i8], %class.uint_set, %class.vector.11, %class.svector, %class.vector.12, i32, [4 x i8], %class.svector.13, %class.svector.15, %"struct.smt::theory_user_propagator::stats", [4 x i8], %class.ref_vector, %class.svector, i8, [7 x i8], %class.ref_vector, %class.svector, i32, [4 x i8], ptr, i32, i32, %class.vector.19, i32, [4 x i8] }>
%"class.smt::theory.base" = type <{ ptr, i32, [4 x i8], ptr, ptr, %class.ptr_vector, %class.svector, i32, i8 }>
%class.ptr_vector = type { %class.vector }
%class.vector = type { ptr }
%"class.user_propagator::callback" = type { ptr }
%"class.std::function.1" = type { %"class.std::_Function_base", ptr }
%"class.std::_Function_base" = type { %"union.std::_Any_data", ptr }
%"union.std::_Any_data" = type { %"union.std::_Nocopy_types" }
%"union.std::_Nocopy_types" = type { { i64, i64 } }
%"class.std::function.3" = type { %"class.std::_Function_base", ptr }
%"class.std::function" = type { %"class.std::_Function_base", ptr }
%"class.std::function.5" = type { %"class.std::_Function_base", ptr }
%"class.std::function.7" = type { %"class.std::_Function_base", ptr }
%"class.std::function.9" = type { %"class.std::_Function_base", ptr }
%class.uint_set = type { %class.svector }
%class.vector.11 = type { ptr }
%class.vector.12 = type { ptr }
%class.svector.13 = type { %class.vector.14 }
%class.vector.14 = type { ptr }
%class.svector.15 = type { %class.vector.16 }
%class.vector.16 = type { ptr }
%"struct.smt::theory_user_propagator::stats" = type { i32 }
%class.ref_vector = type { %class.ref_vector_core }
%class.ref_vector_core = type { %class.ref_manager_wrapper, %class.ptr_vector.17 }
%class.ref_manager_wrapper = type { ptr }
%class.ptr_vector.17 = type { %class.vector.18 }
%class.vector.18 = type { ptr }
%class.svector = type { %class.vector.0 }
%class.vector.0 = type { ptr }
%class.vector.19 = type { ptr }
%"class.smt::theory" = type <{ ptr, i32, [4 x i8], ptr, ptr, %class.ptr_vector, %class.svector, i32, i8, [3 x i8] }>

@.str.12 = private unnamed_addr constant [18 x i8] c"user-propagations\00", align 1
@.str.13 = private unnamed_addr constant [13 x i8] c"user-watched\00", align 1

; Function Attrs: mustprogress nounwind uwtable
define linkonce_odr hidden noundef i32 @_ZNK6vectorIPN3smt5enodeELb0EjE4sizeEv(ptr noundef nonnull align 8 dereferenceable(8) %0) #4 comdat align 2 {
  %2 = alloca i32, align 4
  %3 = alloca ptr, align 8
  store ptr %0, ptr %3, align 8, !tbaa !805
  %4 = load ptr, ptr %3, align 8
  %5 = getelementptr inbounds nuw %class.vector, ptr %4, i32 0, i32 0
  %6 = load ptr, ptr %5, align 8, !tbaa !807
  %7 = icmp eq ptr %6, null
  br i1 %7, label %8, label %9

8:                                                ; preds = %1
  store i32 0, ptr %2, align 4
  br label %14

9:                                                ; preds = %1
  %10 = getelementptr inbounds nuw %class.vector, ptr %4, i32 0, i32 0
  %11 = load ptr, ptr %10, align 8, !tbaa !807
  %12 = getelementptr inbounds i32, ptr %11, i64 -1
  %13 = load i32, ptr %12, align 4, !tbaa !8
  store i32 %13, ptr %2, align 4
  br label %14

14:                                               ; preds = %9, %8
  %15 = load i32, ptr %2, align 4
  ret i32 %15
}

; Function Attrs: mustprogress nounwind uwtable
define linkonce_odr hidden noundef i32 @_ZNK3smt6theory12get_num_varsEv(ptr noundef nonnull align 8 dereferenceable(53) %0) #4 comdat align 2 {
  %2 = alloca ptr, align 8
  store ptr %0, ptr %2, align 8, !tbaa !606
  %3 = load ptr, ptr %2, align 8
  %4 = getelementptr inbounds nuw %"class.smt::theory", ptr %3, i32 0, i32 5
  %5 = call noundef i32 @_ZNK6vectorIPN3smt5enodeELb0EjE4sizeEv(ptr noundef nonnull align 8 dereferenceable(8) %4)
  ret i32 %5
}

; Function Attrs: mustprogress uwtable
define hidden void @_ZNK3smt22theory_user_propagator18collect_statisticsER10statistics(ptr noundef nonnull align 8 dereferenceable(532) %0, ptr noundef nonnull align 8 dereferenceable(16) %1) unnamed_addr #6 align 2 {
  %3 = alloca ptr, align 8
  %4 = alloca ptr, align 8
  store ptr %0, ptr %3, align 8, !tbaa !28
  store ptr %1, ptr %4, align 8, !tbaa !792
  %5 = load ptr, ptr %3, align 8
  %6 = load ptr, ptr %4, align 8, !tbaa !792
  %7 = getelementptr inbounds nuw %"class.smt::theory_user_propagator", ptr %5, i32 0, i32 24
  %8 = getelementptr inbounds nuw %"struct.smt::theory_user_propagator::stats", ptr %7, i32 0, i32 0
  %9 = load i32, ptr %8, align 8, !tbaa !785
  call void @_ZN10statistics6updateEPKcj(ptr noundef nonnull align 8 dereferenceable(16) %6, ptr noundef @.str.12, i32 noundef %9)
  %10 = load ptr, ptr %4, align 8, !tbaa !792
  %11 = call noundef i32 @_ZNK3smt6theory12get_num_varsEv(ptr noundef nonnull align 8 dereferenceable(53) %5)
  call void @_ZN10statistics6updateEPKcj(ptr noundef nonnull align 8 dereferenceable(16) %10, ptr noundef @.str.13, i32 noundef %11)
  ret void
}