; Function Attrs: mustprogress uwtable
define hidden void @_ZNK3smt22theory_user_propagator18collect_statisticsER10statistics(ptr noundef nonnull readonly align 8 captures(none) dereferenceable(532) %0, ptr noundef nonnull align 8 dereferenceable(16) %1) unnamed_addr #4 align 2 {
  %3 = getelementptr inbounds nuw i8, ptr %0, i64 432
  %4 = load i32, ptr %3, align 8, !tbaa !720
  tail call void @_ZN10statistics6updateEPKcj(ptr noundef nonnull align 8 dereferenceable(16) %1, ptr noundef nonnull @.str.12, i32 noundef %4)
  %5 = getelementptr inbounds nuw i8, ptr %0, i64 32
  %6 = load ptr, ptr %5, align 8, !tbaa !543
  %7 = icmp eq ptr %6, null
  br i1 %7, label %_ZNK3smt6theory12get_num_varsEv.exit, label %8

8:                                                ; preds = %2
  %9 = getelementptr inbounds i8, ptr %6, i64 -4
  %10 = load i32, ptr %9, align 4, !tbaa !508
  br label %_ZNK3smt6theory12get_num_varsEv.exit

_ZNK3smt6theory12get_num_varsEv.exit:             ; preds = %2, %8
  %.0.i.i = phi i32 [ %10, %8 ], [ 0, %2 ]
  tail call void @_ZN10statistics6updateEPKcj(ptr noundef nonnull align 8 dereferenceable(16) %1, ptr noundef nonnull @.str.13, i32 noundef %.0.i.i)
  ret void
}